target datalayout = "e-m:e-p270:32:32-p271:32:32-p272:64:64-i64:64-i128:128-f80:128-n8:16:32:64-S128"
target triple = "x86_64-pc-linux-gnu"

%struct.varattrib_1b = type { i8, [0 x i8] }
%struct.varattrib_1b_e = type { i8, i8, [0 x i8] }
%struct.FunctionCallInfoBaseData = type { ptr, ptr, ptr, i32, i8, i16, [0 x %struct.NullableDatum] }
%struct.NullableDatum = type { i64, i8 }
%struct.FmgrInfo = type { ptr, i32, i16, i8, i8, i8, ptr, ptr, ptr }
%struct.varatt_external = type { i32, i32, i32, i32 }

@.str.2 = private unnamed_addr constant [10 x i8] c"varlena.c\00", align 1
@.str.13 = private unnamed_addr constant [32 x i8] c"cache lookup failed for type %u\00", align 1
@__func__.pg_column_toast_chunk_id = private unnamed_addr constant [25 x i8] c"pg_column_toast_chunk_id\00", align 1

; Function Attrs: inlinehint nounwind uwtable
define internal i64 @ObjectIdGetDatum(i32 noundef %0) #0 {
  %2 = alloca i32, align 4
  store i32 %0, ptr %2, align 4
  %3 = load i32, ptr %2, align 4
  %4 = zext i32 %3 to i64
  ret i64 %4
}

; Function Attrs: inlinehint nounwind uwtable
define internal ptr @DatumGetPointer(i64 noundef %0) #0 {
  %2 = alloca i64, align 8
  store i64 %0, ptr %2, align 8
  %3 = load i64, ptr %2, align 8
  %4 = inttoptr i64 %3 to ptr
  ret ptr %4
}

; Function Attrs: nounwind uwtable
define dso_local i64 @pg_column_toast_chunk_id(ptr noundef %0) #1 {
  %2 = alloca i64, align 8
  %3 = alloca ptr, align 8
  %4 = alloca i32, align 4
  %5 = alloca ptr, align 8
  %6 = alloca %struct.varatt_external, align 4
  %7 = alloca i32, align 4
  %8 = alloca i32, align 4
  %9 = alloca ptr, align 8
  store ptr %0, ptr %3, align 8
  call void @llvm.lifetime.start.p0(i64 4, ptr %4) #13
  call void @llvm.lifetime.start.p0(i64 8, ptr %5) #13
  call void @llvm.lifetime.start.p0(i64 16, ptr %6) #13
  %10 = load ptr, ptr %3, align 8
  %11 = getelementptr inbounds nuw %struct.FunctionCallInfoBaseData, ptr %10, i32 0, i32 0
  %12 = load ptr, ptr %11, align 8
  %13 = getelementptr inbounds nuw %struct.FmgrInfo, ptr %12, i32 0, i32 6
  %14 = load ptr, ptr %13, align 8
  %15 = icmp eq ptr %14, null
  br i1 %15, label %16, label %55

16:                                               ; preds = %1
  call void @llvm.lifetime.start.p0(i64 4, ptr %7) #13
  %17 = load ptr, ptr %3, align 8
  %18 = getelementptr inbounds nuw %struct.FunctionCallInfoBaseData, ptr %17, i32 0, i32 0
  %19 = load ptr, ptr %18, align 8
  %20 = call i32 @get_fn_expr_argtype(ptr noundef %19, i32 noundef 0)
  store i32 %20, ptr %7, align 4
  %21 = load i32, ptr %7, align 4
  %22 = call signext i16 @get_typlen(i32 noundef %21)
  %23 = sext i16 %22 to i32
  store i32 %23, ptr %4, align 4
  %24 = load i32, ptr %4, align 4
  %25 = icmp eq i32 %24, 0
  br i1 %25, label %26, label %38

26:                                               ; preds = %16
  br label %27

27:                                               ; preds = %26
  br i1 true, label %28, label %30

28:                                               ; preds = %27
  %29 = call zeroext i1 @errstart_cold(i32 noundef 21, ptr noundef null) #14
  br i1 %29, label %32, label %35

30:                                               ; preds = %27
  %31 = call zeroext i1 @errstart(i32 noundef 21, ptr noundef null)
  br i1 %31, label %32, label %35

32:                                               ; preds = %30, %28
  %33 = load i32, ptr %7, align 4
  %34 = call i32 (ptr, ...) @errmsg_internal(ptr noundef @.str.13, i32 noundef %33)
  call void @errfinish(ptr noundef @.str.2, i32 noundef 5141, ptr noundef @__func__.pg_column_toast_chunk_id)
  br label %35

35:                                               ; preds = %32, %30, %28
  unreachable

36:                                               ; No predecessors!
  br label %37

37:                                               ; preds = %36
  br label %38

38:                                               ; preds = %37, %16
  %39 = load ptr, ptr %3, align 8
  %40 = getelementptr inbounds nuw %struct.FunctionCallInfoBaseData, ptr %39, i32 0, i32 0
  %41 = load ptr, ptr %40, align 8
  %42 = getelementptr inbounds nuw %struct.FmgrInfo, ptr %41, i32 0, i32 7
  %43 = load ptr, ptr %42, align 8
  %44 = call ptr @MemoryContextAlloc(ptr noundef %43, i64 noundef 4)
  %45 = load ptr, ptr %3, align 8
  %46 = getelementptr inbounds nuw %struct.FunctionCallInfoBaseData, ptr %45, i32 0, i32 0
  %47 = load ptr, ptr %46, align 8
  %48 = getelementptr inbounds nuw %struct.FmgrInfo, ptr %47, i32 0, i32 6
  store ptr %44, ptr %48, align 8
  %49 = load i32, ptr %4, align 4
  %50 = load ptr, ptr %3, align 8
  %51 = getelementptr inbounds nuw %struct.FunctionCallInfoBaseData, ptr %50, i32 0, i32 0
  %52 = load ptr, ptr %51, align 8
  %53 = getelementptr inbounds nuw %struct.FmgrInfo, ptr %52, i32 0, i32 6
  %54 = load ptr, ptr %53, align 8
  store i32 %49, ptr %54, align 4
  call void @llvm.lifetime.end.p0(i64 4, ptr %7) #13
  br label %62

55:                                               ; preds = %1
  %56 = load ptr, ptr %3, align 8
  %57 = getelementptr inbounds nuw %struct.FunctionCallInfoBaseData, ptr %56, i32 0, i32 0
  %58 = load ptr, ptr %57, align 8
  %59 = getelementptr inbounds nuw %struct.FmgrInfo, ptr %58, i32 0, i32 6
  %60 = load ptr, ptr %59, align 8
  %61 = load i32, ptr %60, align 4
  store i32 %61, ptr %4, align 4
  br label %62

62:                                               ; preds = %55, %38
  %63 = load i32, ptr %4, align 4
  %64 = icmp ne i32 %63, -1
  br i1 %64, label %65, label %71

65:                                               ; preds = %62
  br label %66

66:                                               ; preds = %65
  %67 = load ptr, ptr %3, align 8
  %68 = getelementptr inbounds nuw %struct.FunctionCallInfoBaseData, ptr %67, i32 0, i32 4
  store i8 1, ptr %68, align 4
  store i64 0, ptr %2, align 8
  store i32 1, ptr %8, align 4
  br label %106

69:                                               ; No predecessors!
  br label %70

70:                                               ; preds = %69
  br label %71

71:                                               ; preds = %70, %62
  %72 = load ptr, ptr %3, align 8
  %73 = getelementptr inbounds nuw %struct.FunctionCallInfoBaseData, ptr %72, i32 0, i32 6
  %74 = getelementptr inbounds [0 x %struct.NullableDatum], ptr %73, i64 0, i64 0
  %75 = getelementptr inbounds nuw %struct.NullableDatum, ptr %74, i32 0, i32 0
  %76 = load i64, ptr %75, align 8
  %77 = call ptr @DatumGetPointer(i64 noundef %76)
  store ptr %77, ptr %5, align 8
  %78 = load ptr, ptr %5, align 8
  %79 = getelementptr inbounds nuw %struct.varattrib_1b, ptr %78, i32 0, i32 0
  %80 = load i8, ptr %79, align 1
  %81 = zext i8 %80 to i32
  %82 = icmp eq i32 %81, 1
  br i1 %82, label %83, label %89

83:                                               ; preds = %71
  %84 = load ptr, ptr %5, align 8
  %85 = getelementptr inbounds nuw %struct.varattrib_1b_e, ptr %84, i32 0, i32 1
  %86 = load i8, ptr %85, align 1
  %87 = zext i8 %86 to i32
  %88 = icmp eq i32 %87, 18
  br i1 %88, label %95, label %89

89:                                               ; preds = %83, %71
  br label %90

90:                                               ; preds = %89
  %91 = load ptr, ptr %3, align 8
  %92 = getelementptr inbounds nuw %struct.FunctionCallInfoBaseData, ptr %91, i32 0, i32 4
  store i8 1, ptr %92, align 4
  store i64 0, ptr %2, align 8
  store i32 1, ptr %8, align 4
  br label %106

93:                                               ; No predecessors!
  br label %94

94:                                               ; preds = %93
  br label %95

95:                                               ; preds = %94, %83
  br label %96

96:                                               ; preds = %95
  call void @llvm.lifetime.start.p0(i64 8, ptr %9) #13
  %97 = load ptr, ptr %5, align 8
  store ptr %97, ptr %9, align 8
  %98 = load ptr, ptr %9, align 8
  %99 = getelementptr inbounds nuw %struct.varattrib_1b_e, ptr %98, i32 0, i32 2
  %100 = getelementptr inbounds [0 x i8], ptr %99, i64 0, i64 0
  call void @llvm.memcpy.p0.p0.i64(ptr align 4 %6, ptr align 1 %100, i64 16, i1 false)
  call void @llvm.lifetime.end.p0(i64 8, ptr %9) #13
  br label %101

101:                                              ; preds = %96
  br label %102

102:                                              ; preds = %101
  %103 = getelementptr inbounds nuw %struct.varatt_external, ptr %6, i32 0, i32 2
  %104 = load i32, ptr %103, align 4
  %105 = call i64 @ObjectIdGetDatum(i32 noundef %104)
  store i64 %105, ptr %2, align 8
  store i32 1, ptr %8, align 4
  br label %106

106:                                              ; preds = %102, %90, %66
  call void @llvm.lifetime.end.p0(i64 16, ptr %6) #13
  call void @llvm.lifetime.end.p0(i64 8, ptr %5) #13
  call void @llvm.lifetime.end.p0(i64 4, ptr %4) #13
  %107 = load i64, ptr %2, align 8
  ret i64 %107
}