; Function Attrs: nounwind uwtable
define dso_local range(i64 0, 4294967296) i64 @pg_column_toast_chunk_id(ptr noundef captures(none) %0) local_unnamed_addr #0 {
  %2 = load ptr, ptr %0, align 8
  %3 = getelementptr inbounds nuw i8, ptr %2, i64 24
  %4 = load ptr, ptr %3, align 8
  %5 = icmp eq ptr %4, null
  br i1 %5, label %6, label %24

6:                                                ; preds = %1
  %7 = tail call i32 @get_fn_expr_argtype(ptr noundef nonnull %2, i32 noundef 0) #19
  %8 = tail call signext i16 @get_typlen(i32 noundef %7) #19
  %9 = icmp eq i16 %8, 0
  br i1 %9, label %10, label %13

10:                                               ; preds = %6
  %11 = tail call zeroext i1 @errstart_cold(i32 noundef 21, ptr noundef null) #20
  tail call void @llvm.assume(i1 %11)
  %12 = tail call i32 (ptr, ...) @errmsg_internal(ptr noundef nonnull @.str.13, i32 noundef %7) #19
  tail call void @errfinish(ptr noundef nonnull @.str.2, i32 noundef 5141, ptr noundef nonnull @__func__.pg_column_toast_chunk_id) #19
  unreachable

13:                                               ; preds = %6
  %14 = sext i16 %8 to i32
  %15 = load ptr, ptr %0, align 8
  %16 = getelementptr inbounds nuw i8, ptr %15, i64 32
  %17 = load ptr, ptr %16, align 8
  %18 = tail call ptr @MemoryContextAlloc(ptr noundef %17, i64 noundef 4) #19
  %19 = load ptr, ptr %0, align 8
  %20 = getelementptr inbounds nuw i8, ptr %19, i64 24
  store ptr %18, ptr %20, align 8
  %21 = load ptr, ptr %0, align 8
  %22 = getelementptr inbounds nuw i8, ptr %21, i64 24
  %23 = load ptr, ptr %22, align 8
  store i32 %14, ptr %23, align 4
  br label %26

24:                                               ; preds = %1
  %25 = load i32, ptr %4, align 4
  br label %26

26:                                               ; preds = %24, %13
  %.018 = phi i32 [ %14, %13 ], [ %25, %24 ]
  %.not = icmp eq i32 %.018, -1
  br i1 %.not, label %29, label %27

27:                                               ; preds = %26
  %28 = getelementptr inbounds nuw i8, ptr %0, i64 28
  store i8 1, ptr %28, align 4
  br label %43

29:                                               ; preds = %26
  %30 = getelementptr inbounds nuw i8, ptr %0, i64 32
  %31 = load i64, ptr %30, align 8
  %32 = inttoptr i64 %31 to ptr
  %33 = load i8, ptr %32, align 1
  %34 = icmp eq i8 %33, 1
  br i1 %34, label %35, label %39

35:                                               ; preds = %29
  %36 = getelementptr inbounds nuw i8, ptr %32, i64 1
  %37 = load i8, ptr %36, align 1
  %38 = icmp eq i8 %37, 18
  br i1 %38, label %41, label %39

39:                                               ; preds = %29, %35
  %40 = getelementptr inbounds nuw i8, ptr %0, i64 28
  store i8 1, ptr %40, align 4
  br label %43

41:                                               ; preds = %35
  %.sroa.3.0..sroa_idx = getelementptr inbounds nuw i8, ptr %32, i64 10
  %.sroa.3.0.copyload = load i32, ptr %.sroa.3.0..sroa_idx, align 1
  %42 = zext i32 %.sroa.3.0.copyload to i64
  br label %43

43:                                               ; preds = %41, %39, %27
  %.0 = phi i64 [ 0, %27 ], [ %42, %41 ], [ 0, %39 ]
  ret i64 %.0
}